
_interrupt:

;main.c,10 :: 		void interrupt() {
;main.c,11 :: 		USB_Interrupt_Proc();
	CALL        _USB_Interrupt_Proc+0, 0
;main.c,12 :: 		}
L_end_interrupt:
L__interrupt2:
	RETFIE      1
; end of _interrupt

_main:

;main.c,15 :: 		void main() {
;main.c,16 :: 		keyboardInit();
	CALL        _keyboardInit+0, 0
;main.c,17 :: 		Delay_ms(2000);
	MOVLW       122
	MOVWF       R11, 0
	MOVLW       193
	MOVWF       R12, 0
	MOVLW       129
	MOVWF       R13, 0
L_main0:
	DECFSZ      R13, 1, 1
	BRA         L_main0
	DECFSZ      R12, 1, 1
	BRA         L_main0
	DECFSZ      R11, 1, 1
	BRA         L_main0
	NOP
	NOP
;main.c,19 :: 		sendText("        .:+oooooooooooooooooooo+:.        \r");
	MOVLW       ?lstr1_main+0
	MOVWF       FARG_sendText+0 
	MOVLW       hi_addr(?lstr1_main+0)
	MOVWF       FARG_sendText+1 
	CALL        _sendText+0, 0
;main.c,20 :: 		sendText("    -ooo+:.                    .:+ooo-    \r");
	MOVLW       ?lstr2_main+0
	MOVWF       FARG_sendText+0 
	MOVLW       hi_addr(?lstr2_main+0)
	MOVWF       FARG_sendText+1 
	CALL        _sendText+0, 0
;main.c,21 :: 		sendText("   ss.                              .ss   \r");
	MOVLW       ?lstr3_main+0
	MOVWF       FARG_sendText+0 
	MOVLW       hi_addr(?lstr3_main+0)
	MOVWF       FARG_sendText+1 
	CALL        _sendText+0, 0
;main.c,22 :: 		sendText("  .N      ..                  ..      N.  \r");
	MOVLW       ?lstr4_main+0
	MOVWF       FARG_sendText+0 
	MOVLW       hi_addr(?lstr4_main+0)
	MOVWF       FARG_sendText+1 
	CALL        _sendText+0, 0
;main.c,23 :: 		sendText("  :h /yyyyoo+oo:.        .:oo+ooyyyy/ h:  \r");
	MOVLW       ?lstr5_main+0
	MOVWF       FARG_sendText+0 
	MOVLW       hi_addr(?lstr5_main+0)
	MOVWF       FARG_sendText+1 
	CALL        _sendText+0, 0
;main.c,24 :: 		sendText("  ossd+:-:+oo:-:oo-    -oo:.:oo/:-:+dsso  \r");
	MOVLW       ?lstr6_main+0
	MOVWF       FARG_sendText+0 
	MOVLW       hi_addr(?lstr6_main+0)
	MOVWF       FARG_sendText+1 
	CALL        _sendText+0, 0
;main.c,25 :: 		sendText("  y+-        :oo/do    oy/oo:        -+y  \r");
	MOVLW       ?lstr7_main+0
	MOVWF       FARG_sendText+0 
	MOVLW       hi_addr(?lstr7_main+0)
	MOVWF       FARG_sendText+1 
	CALL        _sendText+0, 0
;main.c,26 :: 		sendText("  h+.    .......:os.    .:.......    .+h  \r");
	MOVLW       ?lstr8_main+0
	MOVWF       FARG_sendText+0 
	MOVLW       hi_addr(?lstr8_main+0)
	MOVWF       FARG_sendText+1 
	CALL        _sendText+0, 0
;main.c,27 :: 		sendText("  d+y/:/yo++/+oy: :d     :yo+/++oy/:/y+d  \r");
	MOVLW       ?lstr9_main+0
	MOVWF       FARG_sendText+0 
	MOVLW       hi_addr(?lstr9_main+0)
	MOVWF       FARG_sendText+1 
	CALL        _sendText+0, 0
;main.c,28 :: 		sendText("  m. ---/++++++/.  m.    ./++++++/--- .m  \r");
	MOVLW       ?lstr10_main+0
	MOVWF       FARG_sendText+0 
	MOVLW       hi_addr(?lstr10_main+0)
	MOVWF       FARG_sendText+1 
	CALL        _sendText+0, 0
;main.c,29 :: 		sendText("  m.               d:                 .m  \r");
	MOVLW       ?lstr11_main+0
	MOVWF       FARG_sendText+0 
	MOVLW       hi_addr(?lstr11_main+0)
	MOVWF       FARG_sendText+1 
	CALL        _sendText+0, 0
;main.c,30 :: 		sendText("  d-               y/                 -d  \r");
	MOVLW       ?lstr12_main+0
	MOVWF       FARG_sendText+0 
	MOVLW       hi_addr(?lstr12_main+0)
	MOVWF       FARG_sendText+1 
	CALL        _sendText+0, 0
;main.c,31 :: 		sendText("  os/         -    s+      -         /so  \r");
	MOVLW       ?lstr13_main+0
	MOVWF       FARG_sendText+0 
	MOVLW       hi_addr(?lstr13_main+0)
	MOVWF       FARG_sendText+1 
	CALL        _sendText+0, 0
;main.c,32 :: 		sendText("  .mso/::://oom .- :-   -. moo//:::/osm.  \r");
	MOVLW       ?lstr14_main+0
	MOVWF       FARG_sendText+0 
	MOVLW       hi_addr(?lstr14_main+0)
	MOVWF       FARG_sendText+1 
	CALL        _sendText+0, 0
;main.c,33 :: 		sendText("   +y :dyd/.  /oymy/--/ymho/  ./dyd: y+   \r");
	MOVLW       ?lstr15_main+0
	MOVWF       FARG_sendText+0 
	MOVLW       hi_addr(?lstr15_main+0)
	MOVWF       FARG_sendText+1 
	CALL        _sendText+0, 0
;main.c,34 :: 		sendText("    y+  yyy+//::ss.:yy:.ss:://+yyy  +y    \r");
	MOVLW       ?lstr16_main+0
	MOVWF       FARG_sendText+0 
	MOVLW       hi_addr(?lstr16_main+0)
	MOVWF       FARG_sendText+1 
	CALL        _sendText+0, 0
;main.c,35 :: 		sendText("     h/  +sso+++/-:y++y:-/++ooss+  /h     \r");
	MOVLW       ?lstr17_main+0
	MOVWF       FARG_sendText+0 
	MOVLW       hi_addr(?lstr17_main+0)
	MOVWF       FARG_sendText+1 
	CALL        _sendText+0, 0
;main.c,36 :: 		sendText("     .h:   ..--:shho//ohhy:--..   /h.     \r");
	MOVLW       ?lstr18_main+0
	MOVWF       FARG_sendText+0 
	MOVLW       hi_addr(?lstr18_main+0)
	MOVWF       FARG_sendText+1 
	CALL        _sendText+0, 0
;main.c,37 :: 		sendText("       y+       .sysssshs.       +y       \r");
	MOVLW       ?lstr19_main+0
	MOVWF       FARG_sendText+0 
	MOVLW       hi_addr(?lstr19_main+0)
	MOVWF       FARG_sendText+1 
	CALL        _sendText+0, 0
;main.c,38 :: 		sendText("        +y.      .ss  ss.      .y+        \r");
	MOVLW       ?lstr20_main+0
	MOVWF       FARG_sendText+0 
	MOVLW       hi_addr(?lstr20_main+0)
	MOVWF       FARG_sendText+1 
	CALL        _sendText+0, 0
;main.c,39 :: 		sendText("         -yo      y/  /y      oy-         \r");
	MOVLW       ?lstr21_main+0
	MOVWF       FARG_sendText+0 
	MOVLW       hi_addr(?lstr21_main+0)
	MOVWF       FARG_sendText+1 
	CALL        _sendText+0, 0
;main.c,40 :: 		sendText("           :y+    h:  :h    +y:           \r");
	MOVLW       ?lstr22_main+0
	MOVWF       FARG_sendText+0 
	MOVLW       hi_addr(?lstr22_main+0)
	MOVWF       FARG_sendText+1 
	CALL        _sendText+0, 0
;main.c,41 :: 		sendText("             :so- +s  s+ -ss:             \r");
	MOVLW       ?lstr23_main+0
	MOVWF       FARG_sendText+0 
	MOVLW       hi_addr(?lstr23_main+0)
	MOVWF       FARG_sendText+1 
	CALL        _sendText+0, 0
;main.c,42 :: 		sendText("               .+osmoomso+.               \r");
	MOVLW       ?lstr24_main+0
	MOVWF       FARG_sendText+0 
	MOVLW       hi_addr(?lstr24_main+0)
	MOVWF       FARG_sendText+1 
	CALL        _sendText+0, 0
;main.c,45 :: 		sendText("\r");
	MOVLW       ?lstr25_main+0
	MOVWF       FARG_sendText+0 
	MOVLW       hi_addr(?lstr25_main+0)
	MOVWF       FARG_sendText+1 
	CALL        _sendText+0, 0
;main.c,46 :: 		sendText("\r");
	MOVLW       ?lstr26_main+0
	MOVWF       FARG_sendText+0 
	MOVLW       hi_addr(?lstr26_main+0)
	MOVWF       FARG_sendText+1 
	CALL        _sendText+0, 0
;main.c,47 :: 		sendText("You have been hacked! ;-)\r");
	MOVLW       ?lstr27_main+0
	MOVWF       FARG_sendText+0 
	MOVLW       hi_addr(?lstr27_main+0)
	MOVWF       FARG_sendText+1 
	CALL        _sendText+0, 0
;main.c,48 :: 		}
L_end_main:
	GOTO        $+0
; end of _main
